target datalayout = "e-m:e-p270:32:32-p271:32:32-p272:64:64-i64:64-i128:128-f80:128-n8:16:32:64-S128"
target triple = "x86_64-pc-linux-gnu"

%"class.Eigen::DenseStorage" = type { %"struct.Eigen::internal::plain_array" }
%"struct.Eigen::internal::plain_array" = type { [3 x float] }
%"struct.nori::Color3f" = type { %"class.Eigen::Array" }
%"class.Eigen::Array" = type { %"class.Eigen::PlainObjectBase.12" }
%"class.Eigen::PlainObjectBase.12" = type { %"class.Eigen::DenseStorage" }
%"class.Eigen::internal::variable_if_dynamic" = type { i8 }
%"struct.Eigen::internal::evaluator.54" = type { %"struct.Eigen::internal::evaluator.base.57", [7 x i8] }
%"struct.Eigen::internal::evaluator.base.57" = type <{ ptr, %"class.Eigen::internal::variable_if_dynamic" }>
%"struct.Eigen::internal::evaluator.55" = type <{ ptr, %"class.Eigen::internal::variable_if_dynamic", [7 x i8] }>

; Function Attrs: mustprogress nounwind uwtable
define linkonce_odr hidden void @_ZN5Eigen8internal11noncopyableD2Ev(ptr noundef nonnull align 1 dereferenceable(1) %0) unnamed_addr #5 comdat align 2 {
  %2 = alloca ptr, align 8
  store ptr %0, ptr %2, align 8
  ret void
}

; Function Attrs: mustprogress nounwind uwtable
define linkonce_odr hidden void @_ZN5Eigen8internal22ignore_unused_variableIlEEvRKT_(ptr noundef nonnull align 8 dereferenceable(8) %0) #5 comdat {
  %2 = alloca ptr, align 8
  store ptr %0, ptr %2, align 8
  ret void
}

; Function Attrs: mustprogress nounwind uwtable
define linkonce_odr hidden void @_ZN5Eigen8internal11noncopyableC2Ev(ptr noundef nonnull align 1 dereferenceable(1) %0) unnamed_addr #5 comdat align 2 {
  %2 = alloca ptr, align 8
  store ptr %0, ptr %2, align 8
  ret void
}

; Function Attrs: mustprogress nounwind uwtable
define linkonce_odr hidden void @_ZN5Eigen8internal28check_static_allocation_sizeIfLi3EEEvv() #5 comdat {
  ret void
}

; Function Attrs: mustprogress nounwind uwtable
define linkonce_odr hidden void @_ZN5Eigen8internal14evaluator_baseINS_5ArrayIfLi3ELi1ELi0ELi3ELi1EEEED2Ev(ptr noundef nonnull align 1 dereferenceable(1) %0) unnamed_addr #5 comdat align 2 {
  %2 = alloca ptr, align 8
  store ptr %0, ptr %2, align 8
  %3 = load ptr, ptr %2, align 8
  call void @_ZN5Eigen8internal11noncopyableD2Ev(ptr noundef nonnull align 1 dereferenceable(1) %3) #3
  ret void
}

; Function Attrs: mustprogress uwtable
define linkonce_odr hidden void @_ZN5Eigen8internal19variable_if_dynamicIlLi0EEC2El(ptr noundef nonnull align 1 dereferenceable(1) %0, i64 noundef %1) unnamed_addr #4 comdat align 2 {
  %3 = alloca ptr, align 8
  %4 = alloca i64, align 8
  store ptr %0, ptr %3, align 8
  store i64 %1, ptr %4, align 8
  call void @_ZN5Eigen8internal22ignore_unused_variableIlEEvRKT_(ptr noundef nonnull align 8 dereferenceable(8) %4)
  ret void
}

; Function Attrs: mustprogress nounwind uwtable
define linkonce_odr hidden noundef ptr @_ZNK5Eigen15PlainObjectBaseINS_5ArrayIfLi3ELi1ELi0ELi3ELi1EEEE4dataEv(ptr noundef nonnull align 4 dereferenceable(12) %0) #5 comdat align 2 {
  %2 = alloca ptr, align 8
  store ptr %0, ptr %2, align 8
  %3 = load ptr, ptr %2, align 8
  %4 = getelementptr inbounds %"class.Eigen::PlainObjectBase.12", ptr %3, i32 0, i32 0
  %5 = call noundef ptr @_ZNK5Eigen12DenseStorageIfLi3ELi3ELi1ELi0EE4dataEv(ptr noundef nonnull align 4 dereferenceable(12) %4)
  ret ptr %5
}

; Function Attrs: mustprogress nounwind uwtable
define linkonce_odr hidden void @_ZN5Eigen8internal14evaluator_baseINS_5ArrayIfLi3ELi1ELi0ELi3ELi1EEEEC2Ev(ptr noundef nonnull align 1 dereferenceable(1) %0) unnamed_addr #5 comdat align 2 {
  %2 = alloca ptr, align 8
  store ptr %0, ptr %2, align 8
  %3 = load ptr, ptr %2, align 8
  call void @_ZN5Eigen8internal11noncopyableC2Ev(ptr noundef nonnull align 1 dereferenceable(1) %3)
  ret void
}

; Function Attrs: mustprogress uwtable
define linkonce_odr hidden void @_ZN5Eigen8internal11plain_arrayIfLi3ELi0ELi0EEC2Ev(ptr noundef nonnull align 4 dereferenceable(12) %0) unnamed_addr #4 comdat align 2 {
  %2 = alloca ptr, align 8
  store ptr %0, ptr %2, align 8
  call void @_ZN5Eigen8internal28check_static_allocation_sizeIfLi3EEEvv()
  ret void
}

; Function Attrs: mustprogress nounwind uwtable
define linkonce_odr hidden void @_ZN5Eigen9DenseBaseINS_5ArrayIfLi3ELi1ELi0ELi3ELi1EEEEC2Ev(ptr noundef nonnull align 1 dereferenceable(1) %0) unnamed_addr #5 comdat align 2 {
  %2 = alloca ptr, align 8
  store ptr %0, ptr %2, align 8
  ret void
}

; Function Attrs: mustprogress nounwind uwtable
define linkonce_odr hidden void @_ZN5Eigen8internal9evaluatorINS_15PlainObjectBaseINS_5ArrayIfLi3ELi1ELi0ELi3ELi1EEEEEED2Ev(ptr noundef nonnull align 8 dereferenceable(9) %0) unnamed_addr #5 comdat align 2 {
  %2 = alloca ptr, align 8
  store ptr %0, ptr %2, align 8
  %3 = load ptr, ptr %2, align 8
  call void @_ZN5Eigen8internal14evaluator_baseINS_5ArrayIfLi3ELi1ELi0ELi3ELi1EEEED2Ev(ptr noundef nonnull align 1 dereferenceable(1) %3) #3
  ret void
}

; Function Attrs: mustprogress uwtable
define linkonce_odr hidden void @_ZN5Eigen8internal9evaluatorINS_15PlainObjectBaseINS_5ArrayIfLi3ELi1ELi0ELi3ELi1EEEEEEC2ERKS5_(ptr noundef nonnull align 8 dereferenceable(9) %0, ptr noundef nonnull align 4 dereferenceable(12) %1) unnamed_addr #4 comdat align 2 personality ptr @__gxx_personality_v0 {
  %3 = alloca ptr, align 8
  %4 = alloca ptr, align 8
  %5 = alloca ptr, align 8
  %6 = alloca i32, align 4
  store ptr %0, ptr %3, align 8
  store ptr %1, ptr %4, align 8
  %7 = load ptr, ptr %3, align 8
  call void @_ZN5Eigen8internal14evaluator_baseINS_5ArrayIfLi3ELi1ELi0ELi3ELi1EEEEC2Ev(ptr noundef nonnull align 1 dereferenceable(1) %7)
  %8 = getelementptr inbounds %"struct.Eigen::internal::evaluator.55", ptr %7, i32 0, i32 0
  %9 = load ptr, ptr %4, align 8
  %10 = invoke noundef ptr @_ZNK5Eigen15PlainObjectBaseINS_5ArrayIfLi3ELi1ELi0ELi3ELi1EEEE4dataEv(ptr noundef nonnull align 4 dereferenceable(12) %9)
          to label %11 unwind label %14

11:                                               ; preds = %2
  store ptr %10, ptr %8, align 8
  %12 = getelementptr inbounds %"struct.Eigen::internal::evaluator.55", ptr %7, i32 0, i32 1
  invoke void @_ZN5Eigen8internal19variable_if_dynamicIlLi0EEC2El(ptr noundef nonnull align 1 dereferenceable(1) %12, i64 noundef 0)
          to label %13 unwind label %14

13:                                               ; preds = %11
  ret void

14:                                               ; preds = %11, %2
  %15 = landingpad { ptr, i32 }
          cleanup
  %16 = extractvalue { ptr, i32 } %15, 0
  store ptr %16, ptr %5, align 8
  %17 = extractvalue { ptr, i32 } %15, 1
  store i32 %17, ptr %6, align 4
  call void @_ZN5Eigen8internal14evaluator_baseINS_5ArrayIfLi3ELi1ELi0ELi3ELi1EEEED2Ev(ptr noundef nonnull align 1 dereferenceable(1) %7) #3
  br label %18

18:                                               ; preds = %14
  %19 = load ptr, ptr %5, align 8
  %20 = load i32, ptr %6, align 4
  %21 = insertvalue { ptr, i32 } poison, ptr %19, 0
  %22 = insertvalue { ptr, i32 } %21, i32 %20, 1
  resume { ptr, i32 } %22
}

; Function Attrs: mustprogress uwtable
define linkonce_odr hidden void @_ZN5Eigen12DenseStorageIfLi3ELi3ELi1ELi0EEC2Ev(ptr noundef nonnull align 4 dereferenceable(12) %0) unnamed_addr #4 comdat align 2 {
  %2 = alloca ptr, align 8
  store ptr %0, ptr %2, align 8
  %3 = load ptr, ptr %2, align 8
  %4 = getelementptr inbounds %"class.Eigen::DenseStorage", ptr %3, i32 0, i32 0
  call void @_ZN5Eigen8internal11plain_arrayIfLi3ELi0ELi0EEC2Ev(ptr noundef nonnull align 4 dereferenceable(12) %4)
  ret void
}

; Function Attrs: mustprogress uwtable
define linkonce_odr hidden void @_ZN5Eigen9ArrayBaseINS_5ArrayIfLi3ELi1ELi0ELi3ELi1EEEEC2Ev(ptr noundef nonnull align 1 dereferenceable(1) %0) unnamed_addr #4 comdat align 2 {
  %2 = alloca ptr, align 8
  store ptr %0, ptr %2, align 8
  %3 = load ptr, ptr %2, align 8
  call void @_ZN5Eigen9DenseBaseINS_5ArrayIfLi3ELi1ELi0ELi3ELi1EEEEC2Ev(ptr noundef nonnull align 1 dereferenceable(1) %3)
  ret void
}

; Function Attrs: mustprogress nounwind uwtable
define linkonce_odr hidden void @_ZN5Eigen8internal9evaluatorINS_5ArrayIfLi3ELi1ELi0ELi3ELi1EEEED2Ev(ptr noundef nonnull align 8 dereferenceable(9) %0) unnamed_addr #5 comdat align 2 {
  %2 = alloca ptr, align 8
  store ptr %0, ptr %2, align 8
  %3 = load ptr, ptr %2, align 8
  call void @_ZN5Eigen8internal9evaluatorINS_15PlainObjectBaseINS_5ArrayIfLi3ELi1ELi0ELi3ELi1EEEEEED2Ev(ptr noundef nonnull align 8 dereferenceable(9) %3) #3
  ret void
}

; Function Attrs: mustprogress nounwind uwtable
define linkonce_odr hidden noundef nonnull align 4 dereferenceable(4) ptr @_ZN5Eigen8internal9evaluatorINS_15PlainObjectBaseINS_5ArrayIfLi3ELi1ELi0ELi3ELi1EEEEEE8coeffRefEl(ptr noundef nonnull align 8 dereferenceable(9) %0, i64 noundef %1) #5 comdat align 2 {
  %3 = alloca ptr, align 8
  %4 = alloca i64, align 8
  store ptr %0, ptr %3, align 8
  store i64 %1, ptr %4, align 8
  %5 = load ptr, ptr %3, align 8
  %6 = getelementptr inbounds %"struct.Eigen::internal::evaluator.55", ptr %5, i32 0, i32 0
  %7 = load ptr, ptr %6, align 8
  %8 = load i64, ptr %4, align 8
  %9 = getelementptr inbounds float, ptr %7, i64 %8
  ret ptr %9
}

; Function Attrs: mustprogress uwtable
define linkonce_odr hidden void @_ZN5Eigen8internal9evaluatorINS_5ArrayIfLi3ELi1ELi0ELi3ELi1EEEEC2ERKS3_(ptr noundef nonnull align 8 dereferenceable(9) %0, ptr noundef nonnull align 4 dereferenceable(12) %1) unnamed_addr #4 comdat align 2 {
  %3 = alloca ptr, align 8
  %4 = alloca ptr, align 8
  store ptr %0, ptr %3, align 8
  store ptr %1, ptr %4, align 8
  %5 = load ptr, ptr %3, align 8
  %6 = load ptr, ptr %4, align 8
  call void @_ZN5Eigen8internal9evaluatorINS_15PlainObjectBaseINS_5ArrayIfLi3ELi1ELi0ELi3ELi1EEEEEEC2ERKS5_(ptr noundef nonnull align 8 dereferenceable(9) %5, ptr noundef nonnull align 4 dereferenceable(12) %6)
  ret void
}

; Function Attrs: mustprogress nounwind uwtable
define linkonce_odr hidden noundef nonnull align 4 dereferenceable(12) ptr @_ZN5Eigen9EigenBaseINS_5ArrayIfLi3ELi1ELi0ELi3ELi1EEEE7derivedEv(ptr noundef nonnull align 1 dereferenceable(1) %0) #5 comdat align 2 {
  %2 = alloca ptr, align 8
  store ptr %0, ptr %2, align 8
  %3 = load ptr, ptr %2, align 8
  ret ptr %3
}

; Function Attrs: mustprogress nounwind uwtable
define linkonce_odr hidden noundef ptr @_ZN5Eigen12DenseStorageIfLi3ELi3ELi1ELi0EE4dataEv(ptr noundef nonnull align 4 dereferenceable(12) %0) #5 comdat align 2 {
  %2 = alloca ptr, align 8
  store ptr %0, ptr %2, align 8
  %3 = load ptr, ptr %2, align 8
  %4 = getelementptr inbounds %"class.Eigen::DenseStorage", ptr %3, i32 0, i32 0
  %5 = getelementptr inbounds %"struct.Eigen::internal::plain_array", ptr %4, i32 0, i32 0
  %6 = getelementptr inbounds [3 x float], ptr %5, i64 0, i64 0
  ret ptr %6
}

; Function Attrs: mustprogress nounwind uwtable
define linkonce_odr hidden void @_ZN5Eigen15PlainObjectBaseINS_5ArrayIfLi3ELi1ELi0ELi3ELi1EEEE22_check_template_paramsEv() #5 comdat align 2 {
  ret void
}

; Function Attrs: mustprogress uwtable
define linkonce_odr hidden void @_ZN5Eigen15PlainObjectBaseINS_5ArrayIfLi3ELi1ELi0ELi3ELi1EEEEC2Ev(ptr noundef nonnull align 4 dereferenceable(12) %0) unnamed_addr #4 comdat align 2 {
  %2 = alloca ptr, align 8
  store ptr %0, ptr %2, align 8
  %3 = load ptr, ptr %2, align 8
  call void @_ZN5Eigen9ArrayBaseINS_5ArrayIfLi3ELi1ELi0ELi3ELi1EEEEC2Ev(ptr noundef nonnull align 1 dereferenceable(1) %3)
  %4 = getelementptr inbounds %"class.Eigen::PlainObjectBase.12", ptr %3, i32 0, i32 0
  call void @_ZN5Eigen12DenseStorageIfLi3ELi3ELi1ELi0EEC2Ev(ptr noundef nonnull align 4 dereferenceable(12) %4)
  ret void
}

; Function Attrs: mustprogress uwtable
define linkonce_odr hidden noundef nonnull align 4 dereferenceable(4) ptr @_ZN5Eigen15DenseCoeffsBaseINS_5ArrayIfLi3ELi1ELi0ELi3ELi1EEELi1EE8coeffRefEl(ptr noundef nonnull align 1 dereferenceable(1) %0, i64 noundef %1) #4 comdat align 2 personality ptr @__gxx_personality_v0 {
  %3 = alloca ptr, align 8
  %4 = alloca i64, align 8
  %5 = alloca %"struct.Eigen::internal::evaluator.54", align 8
  %6 = alloca ptr, align 8
  %7 = alloca i32, align 4
  store ptr %0, ptr %3, align 8
  store i64 %1, ptr %4, align 8
  %8 = load ptr, ptr %3, align 8
  %9 = call noundef nonnull align 4 dereferenceable(12) ptr @_ZN5Eigen9EigenBaseINS_5ArrayIfLi3ELi1ELi0ELi3ELi1EEEE7derivedEv(ptr noundef nonnull align 1 dereferenceable(1) %8)
  call void @_ZN5Eigen8internal9evaluatorINS_5ArrayIfLi3ELi1ELi0ELi3ELi1EEEEC2ERKS3_(ptr noundef nonnull align 8 dereferenceable(9) %5, ptr noundef nonnull align 4 dereferenceable(12) %9)
  %10 = load i64, ptr %4, align 8
  %11 = invoke noundef nonnull align 4 dereferenceable(4) ptr @_ZN5Eigen8internal9evaluatorINS_15PlainObjectBaseINS_5ArrayIfLi3ELi1ELi0ELi3ELi1EEEEEE8coeffRefEl(ptr noundef nonnull align 8 dereferenceable(9) %5, i64 noundef %10)
          to label %12 unwind label %13

12:                                               ; preds = %2
  call void @_ZN5Eigen8internal9evaluatorINS_5ArrayIfLi3ELi1ELi0ELi3ELi1EEEED2Ev(ptr noundef nonnull align 8 dereferenceable(9) %5) #3
  ret ptr %11

13:                                               ; preds = %2
  %14 = landingpad { ptr, i32 }
          cleanup
  %15 = extractvalue { ptr, i32 } %14, 0
  store ptr %15, ptr %6, align 8
  %16 = extractvalue { ptr, i32 } %14, 1
  store i32 %16, ptr %7, align 4
  call void @_ZN5Eigen8internal9evaluatorINS_5ArrayIfLi3ELi1ELi0ELi3ELi1EEEED2Ev(ptr noundef nonnull align 8 dereferenceable(9) %5) #3
  br label %17

17:                                               ; preds = %13
  %18 = load ptr, ptr %6, align 8
  %19 = load i32, ptr %7, align 4
  %20 = insertvalue { ptr, i32 } poison, ptr %18, 0
  %21 = insertvalue { ptr, i32 } %20, i32 %19, 1
  resume { ptr, i32 } %21
}

; Function Attrs: mustprogress nounwind uwtable
define linkonce_odr hidden noundef ptr @_ZNK5Eigen12DenseStorageIfLi3ELi3ELi1ELi0EE4dataEv(ptr noundef nonnull align 4 dereferenceable(12) %0) #5 comdat align 2 {
  %2 = alloca ptr, align 8
  store ptr %0, ptr %2, align 8
  %3 = load ptr, ptr %2, align 8
  %4 = getelementptr inbounds %"class.Eigen::DenseStorage", ptr %3, i32 0, i32 0
  %5 = getelementptr inbounds %"struct.Eigen::internal::plain_array", ptr %4, i32 0, i32 0
  %6 = getelementptr inbounds [3 x float], ptr %5, i64 0, i64 0
  ret ptr %6
}

; Function Attrs: mustprogress uwtable
define linkonce_odr hidden void @_ZN5Eigen5ArrayIfLi3ELi1ELi0ELi3ELi1EEC2ERKfS3_S3_(ptr noundef nonnull align 4 dereferenceable(12) %0, ptr noundef nonnull align 4 dereferenceable(4) %1, ptr noundef nonnull align 4 dereferenceable(4) %2, ptr noundef nonnull align 4 dereferenceable(4) %3) unnamed_addr #4 comdat align 2 {
  %5 = alloca ptr, align 8
  %6 = alloca ptr, align 8
  %7 = alloca ptr, align 8
  %8 = alloca ptr, align 8
  store ptr %0, ptr %5, align 8
  store ptr %1, ptr %6, align 8
  store ptr %2, ptr %7, align 8
  store ptr %3, ptr %8, align 8
  %9 = load ptr, ptr %5, align 8
  call void @_ZN5Eigen15PlainObjectBaseINS_5ArrayIfLi3ELi1ELi0ELi3ELi1EEEEC2Ev(ptr noundef nonnull align 4 dereferenceable(12) %9)
  call void @_ZN5Eigen15PlainObjectBaseINS_5ArrayIfLi3ELi1ELi0ELi3ELi1EEEE22_check_template_paramsEv()
  %10 = load ptr, ptr %6, align 8
  %11 = load float, ptr %10, align 4
  %12 = getelementptr inbounds %"class.Eigen::PlainObjectBase.12", ptr %9, i32 0, i32 0
  %13 = call noundef ptr @_ZN5Eigen12DenseStorageIfLi3ELi3ELi1ELi0EE4dataEv(ptr noundef nonnull align 4 dereferenceable(12) %12)
  %14 = getelementptr inbounds float, ptr %13, i64 0
  store float %11, ptr %14, align 4
  %15 = load ptr, ptr %7, align 8
  %16 = load float, ptr %15, align 4
  %17 = getelementptr inbounds %"class.Eigen::PlainObjectBase.12", ptr %9, i32 0, i32 0
  %18 = call noundef ptr @_ZN5Eigen12DenseStorageIfLi3ELi3ELi1ELi0EE4dataEv(ptr noundef nonnull align 4 dereferenceable(12) %17)
  %19 = getelementptr inbounds float, ptr %18, i64 1
  store float %16, ptr %19, align 4
  %20 = load ptr, ptr %8, align 8
  %21 = load float, ptr %20, align 4
  %22 = getelementptr inbounds %"class.Eigen::PlainObjectBase.12", ptr %9, i32 0, i32 0
  %23 = call noundef ptr @_ZN5Eigen12DenseStorageIfLi3ELi3ELi1ELi0EE4dataEv(ptr noundef nonnull align 4 dereferenceable(12) %22)
  %24 = getelementptr inbounds float, ptr %23, i64 2
  store float %21, ptr %24, align 4
  ret void
}

; Function Attrs: mustprogress nounwind uwtable
define linkonce_odr dso_local noundef float @_ZSt3powff(float noundef %0, float noundef %1) #5 comdat {
  %3 = alloca float, align 4
  %4 = alloca float, align 4
  store float %0, ptr %3, align 4
  store float %1, ptr %4, align 4
  %5 = load float, ptr %3, align 4
  %6 = load float, ptr %4, align 4
  %7 = call float @powf(float noundef %5, float noundef %6) #3
  ret float %7
}

; Function Attrs: mustprogress uwtable
define linkonce_odr hidden noundef nonnull align 4 dereferenceable(4) ptr @_ZN5Eigen15DenseCoeffsBaseINS_5ArrayIfLi3ELi1ELi0ELi3ELi1EEELi1EEixEl(ptr noundef nonnull align 1 dereferenceable(1) %0, i64 noundef %1) #4 comdat align 2 {
  %3 = alloca ptr, align 8
  %4 = alloca i64, align 8
  store ptr %0, ptr %3, align 8
  store i64 %1, ptr %4, align 8
  %5 = load ptr, ptr %3, align 8
  %6 = load i64, ptr %4, align 8
  %7 = call noundef nonnull align 4 dereferenceable(4) ptr @_ZN5Eigen15DenseCoeffsBaseINS_5ArrayIfLi3ELi1ELi0ELi3ELi1EEELi1EE8coeffRefEl(ptr noundef nonnull align 1 dereferenceable(1) %5, i64 noundef %6)
  ret ptr %7
}

; Function Attrs: mustprogress nounwind uwtable
define linkonce_odr hidden noundef nonnull align 4 dereferenceable(4) ptr @_ZNK5Eigen15PlainObjectBaseINS_5ArrayIfLi3ELi1ELi0ELi3ELi1EEEE5coeffEl(ptr noundef nonnull align 4 dereferenceable(12) %0, i64 noundef %1) #5 comdat align 2 {
  %3 = alloca ptr, align 8
  %4 = alloca i64, align 8
  store ptr %0, ptr %3, align 8
  store i64 %1, ptr %4, align 8
  %5 = load ptr, ptr %3, align 8
  %6 = getelementptr inbounds %"class.Eigen::PlainObjectBase.12", ptr %5, i32 0, i32 0
  %7 = call noundef ptr @_ZNK5Eigen12DenseStorageIfLi3ELi3ELi1ELi0EE4dataEv(ptr noundef nonnull align 4 dereferenceable(12) %6)
  %8 = load i64, ptr %4, align 8
  %9 = getelementptr inbounds float, ptr %7, i64 %8
  ret ptr %9
}

; Function Attrs: mustprogress uwtable
define linkonce_odr hidden void @_ZN4nori7Color3fC2Ef(ptr noundef nonnull align 4 dereferenceable(12) %0, float noundef %1) unnamed_addr #4 comdat align 2 {
  %3 = alloca ptr, align 8
  %4 = alloca float, align 4
  store ptr %0, ptr %3, align 8
  store float %1, ptr %4, align 4
  %5 = load ptr, ptr %3, align 8
  call void @_ZN5Eigen5ArrayIfLi3ELi1ELi0ELi3ELi1EEC2ERKfS3_S3_(ptr noundef nonnull align 4 dereferenceable(12) %5, ptr noundef nonnull align 4 dereferenceable(4) %4, ptr noundef nonnull align 4 dereferenceable(4) %4, ptr noundef nonnull align 4 dereferenceable(4) %4)
  ret void
}

; Function Attrs: mustprogress uwtable
define hidden void @_ZNK4nori7Color3f11toLinearRGBEv(ptr dead_on_unwind noalias writable sret(%"struct.nori::Color3f") align 4 %0, ptr noundef nonnull align 4 dereferenceable(12) %1) #4 align 2 {
  %3 = alloca ptr, align 8
  %4 = alloca ptr, align 8
  %5 = alloca i32, align 4
  %6 = alloca float, align 4
  store ptr %0, ptr %3, align 8
  store ptr %1, ptr %4, align 8
  %7 = load ptr, ptr %4, align 8
  call void @_ZN4nori7Color3fC2Ef(ptr noundef nonnull align 4 dereferenceable(12) %0, float noundef 0.000000e+00)
  store i32 0, ptr %5, align 4
  br label %8

8:                                                ; preds = %33, %2
  %9 = load i32, ptr %5, align 4
  %10 = icmp slt i32 %9, 3
  br i1 %10, label %11, label %36

11:                                               ; preds = %8
  %12 = load i32, ptr %5, align 4
  %13 = sext i32 %12 to i64
  %14 = call noundef nonnull align 4 dereferenceable(4) ptr @_ZNK5Eigen15PlainObjectBaseINS_5ArrayIfLi3ELi1ELi0ELi3ELi1EEEE5coeffEl(ptr noundef nonnull align 4 dereferenceable(12) %7, i64 noundef %13)
  %15 = load float, ptr %14, align 4
  store float %15, ptr %6, align 4
  %16 = load float, ptr %6, align 4
  %17 = fcmp ole float %16, 0x3FA4B5DCC0000000
  br i1 %17, label %18, label %24

18:                                               ; preds = %11
  %19 = load float, ptr %6, align 4
  %20 = fmul float %19, 0x3FB3D07220000000
  %21 = load i32, ptr %5, align 4
  %22 = sext i32 %21 to i64
  %23 = call noundef nonnull align 4 dereferenceable(4) ptr @_ZN5Eigen15DenseCoeffsBaseINS_5ArrayIfLi3ELi1ELi0ELi3ELi1EEELi1EEixEl(ptr noundef nonnull align 1 dereferenceable(1) %0, i64 noundef %22)
  store float %20, ptr %23, align 4
  br label %32

24:                                               ; preds = %11
  %25 = load float, ptr %6, align 4
  %26 = fadd float %25, 0x3FAC28F5C0000000
  %27 = fmul float %26, 0x3FEE54EDE0000000
  %28 = call noundef float @_ZSt3powff(float noundef %27, float noundef 0x4003333340000000)
  %29 = load i32, ptr %5, align 4
  %30 = sext i32 %29 to i64
  %31 = call noundef nonnull align 4 dereferenceable(4) ptr @_ZN5Eigen15DenseCoeffsBaseINS_5ArrayIfLi3ELi1ELi0ELi3ELi1EEELi1EEixEl(ptr noundef nonnull align 1 dereferenceable(1) %0, i64 noundef %30)
  store float %28, ptr %31, align 4
  br label %32

32:                                               ; preds = %24, %18
  br label %33

33:                                               ; preds = %32
  %34 = load i32, ptr %5, align 4
  %35 = add nsw i32 %34, 1
  store i32 %35, ptr %5, align 4
  br label %8, !llvm.loop !13

36:                                               ; preds = %8
  ret void
}