; Function Attrs: mustprogress nofree nounwind memory(write, argmem: readwrite) uwtable
define hidden void @_ZNK4nori7Color3f11toLinearRGBEv(ptr dead_on_unwind noalias nocapture writable writeonly sret(%"struct.nori::Color3f") align 4 %0, ptr nocapture noundef nonnull readonly align 4 dereferenceable(12) %1) local_unnamed_addr #10 align 2 personality ptr @__gxx_personality_v0 {
  store <2 x float> zeroinitializer, ptr %0, align 4
  %3 = getelementptr inbounds i8, ptr %0, i64 8
  store float 0.000000e+00, ptr %3, align 4
  br label %4

4:                                                ; preds = %2, %14
  %indvars.iv = phi i64 [ 0, %2 ], [ %indvars.iv.next, %14 ]
  %5 = getelementptr inbounds float, ptr %1, i64 %indvars.iv
  %6 = load float, ptr %5, align 4
  %7 = fcmp ugt float %6, 0x3FA4B5DCC0000000
  br i1 %7, label %10, label %8

8:                                                ; preds = %4
  %9 = fmul float %6, 0x3FB3D07220000000
  br label %14

10:                                               ; preds = %4
  %11 = fadd float %6, 0x3FAC28F5C0000000
  %12 = fmul float %11, 0x3FEE54EDE0000000
  %13 = tail call noundef float @powf(float noundef %12, float noundef 0x4003333340000000) #26
  br label %14

14:                                               ; preds = %8, %10
  %.sink = phi float [ %13, %10 ], [ %9, %8 ]
  %15 = getelementptr inbounds float, ptr %0, i64 %indvars.iv
  store float %.sink, ptr %15, align 4
  %indvars.iv.next = add nuw nsw i64 %indvars.iv, 1
  %exitcond.not = icmp eq i64 %indvars.iv.next, 3
  br i1 %exitcond.not, label %16, label %4, !llvm.loop !24

16:                                               ; preds = %14
  ret void
}